target datalayout = "e-m:e-p270:32:32-p271:32:32-p272:64:64-i64:64-i128:128-f80:128-n8:16:32:64-S128"
target triple = "x86_64-pc-linux-gnu"

%union.pthread_mutex_t = type { %struct.__pthread_mutex_s }
%struct.__pthread_mutex_s = type { i32, i32, i32, i32, i32, i16, i16, %struct.__pthread_internal_list }
%struct.__pthread_internal_list = type { ptr, ptr }
%struct.pmix_tma = type { ptr, ptr, ptr, ptr, ptr, ptr, ptr, ptr }
%struct.pmix_proc = type { [256 x i8], i32 }
%struct.timeval = type { i64, i64 }
%struct.pmix_lock_t = type { i32, %struct.pmix_mutex_t, %union.pthread_cond_t, i8 }
%struct.pmix_mutex_t = type { %struct.pmix_object_t, %union.pthread_mutex_t }
%struct.pmix_object_t = type { %union.pthread_mutex_t, ptr, i32, %struct.pmix_tma }
%union.pthread_cond_t = type { %struct.__pthread_cond_s }
%struct.__pthread_cond_s = type { %union.__atomic_wide_counter, %union.__atomic_wide_counter, [2 x i32], [2 x i32], i32, i32, [2 x i32] }
%union.__atomic_wide_counter = type { i64 }
%struct.pmix_globals_t = type { i32, %struct.pmix_proc, %struct.pmix_value, %struct.pmix_value, ptr, i32, i32, ptr, i32, i32, i32, i32, i32, ptr, ptr, i32, %struct.pmix_events_t, i8, i8, %struct.timeval, %struct.pmix_list_t, %struct.pmix_pointer_array_t, i32, i32, %struct.pmix_hotel_t, i8, %struct.pmix_list_t, i8, i8, i8, i64, %struct.pmix_list_t, %struct.pmix_topology_t, %struct.pmix_cpuset_t, i8, i8, %struct.pmix_iof_flags_t, %struct.pmix_keyindex_t }
%struct.pmix_value = type { i16, %union.anon.9 }
%union.anon.9 = type { %struct.pmix_envar_t }
%struct.pmix_envar_t = type { ptr, ptr, i8 }
%struct.pmix_events_t = type { %struct.pmix_object_t, i64, ptr, ptr, %struct.pmix_list_t, %struct.pmix_list_t, %struct.pmix_list_t, %struct.pmix_list_t }
%struct.pmix_pointer_array_t = type { %struct.pmix_object_t, i32, i32, i32, i32, i32, ptr, ptr }
%struct.pmix_hotel_t = type { %struct.pmix_object_t, i32, ptr, %struct.timeval, ptr, ptr, ptr, ptr, i32 }
%struct.pmix_list_t = type { %struct.pmix_object_t, %struct.pmix_list_item_t, i64 }
%struct.pmix_list_item_t = type { %struct.pmix_object_t, ptr, ptr, i32 }
%struct.pmix_topology_t = type { ptr, ptr }
%struct.pmix_cpuset_t = type { ptr, ptr }
%struct.pmix_iof_flags_t = type { i8, i8, i8, i8, i8, i8, i8, ptr, ptr, i8, i8, i8, i8, i8, i8 }
%struct.pmix_keyindex_t = type { %struct.pmix_object_t, ptr, i32 }
%struct.pmix_output_desc_t = type { i8, i8, i32, i8, i32, ptr, ptr, i32, ptr, i32, i8, i8, i8, i8, ptr, i32, i32 }
%struct.pmix_info = type { [512 x i8], i32, %struct.pmix_value }
%struct.pmix_client_globals_t = type { ptr, i8, %struct.pmix_list_t, %struct.pmix_pointer_array_t, %struct.pmix_list_t, i32, i32, i32, i32, i32, i32, i32, i32, i32, i32, i32, i32, i32, i32, i32, i32, %struct.pmix_iof_sink_t, %struct.pmix_iof_sink_t, i32, i32 }
%struct.pmix_iof_sink_t = type { %struct.pmix_list_item_t, %struct.pmix_proc, i16, %struct.pmix_iof_write_event_t, i8, i8, i8 }
%struct.pmix_iof_write_event_t = type { %struct.pmix_list_item_t, i8, i8, i32, ptr, %struct.timeval, i32, %struct.pmix_list_t }

@pmix_globals = external global %struct.pmix_globals_t, align 8
@pmix_output_info = external global [0 x %struct.pmix_output_desc_t], align 8
@.str.29 = private unnamed_addr constant [14 x i8] c"pmix.evobject\00", align 1
@.str.30 = private unnamed_addr constant [12 x i8] c"pmix.evname\00", align 1
@.str.60 = private unnamed_addr constant [31 x i8] c"[%s:%d] DEBUGGER RELEASE RECVD\00", align 1
@.str.61 = private unnamed_addr constant [41 x i8] c"event handler %s failed to return object\00", align 1
@.str.62 = private unnamed_addr constant [5 x i8] c"NULL\00", align 1

; Function Attrs: inlinehint nounwind uwtable
define internal void @pmix_mutex_unlock(ptr noundef %0) #2 {
  %2 = alloca ptr, align 8
  store ptr %0, ptr %2, align 8, !tbaa !158
  %3 = load ptr, ptr %2, align 8, !tbaa !158
  %4 = getelementptr inbounds nuw %struct.pmix_mutex_t, ptr %3, i32 0, i32 1
  %5 = call i32 @pthread_mutex_unlock(ptr noundef %4) #12
  ret void
}

; Function Attrs: inlinehint nounwind uwtable
define internal void @pmix_atomic_wmb() #2 {
  fence release
  ret void
}

; Function Attrs: inlinehint nounwind uwtable
define internal void @pmix_mutex_lock(ptr noundef %0) #2 {
  %2 = alloca ptr, align 8
  store ptr %0, ptr %2, align 8, !tbaa !158
  %3 = load ptr, ptr %2, align 8, !tbaa !158
  %4 = getelementptr inbounds nuw %struct.pmix_mutex_t, ptr %3, i32 0, i32 1
  %5 = call i32 @pthread_mutex_lock(ptr noundef %4) #12
  ret void
}

; Function Attrs: nounwind uwtable
define internal void @notification_fn(i64 noundef %0, i32 noundef %1, ptr noundef %2, ptr noundef %3, i64 noundef %4, ptr noundef %5, i64 noundef %6, ptr noundef %7, ptr noundef %8) #0 {
  %10 = alloca i64, align 8
  %11 = alloca i32, align 4
  %12 = alloca ptr, align 8
  %13 = alloca ptr, align 8
  %14 = alloca i64, align 8
  %15 = alloca ptr, align 8
  %16 = alloca i64, align 8
  %17 = alloca ptr, align 8
  %18 = alloca ptr, align 8
  %19 = alloca ptr, align 8
  %20 = alloca ptr, align 8
  %21 = alloca i64, align 8
  %22 = alloca i32, align 4
  store i64 %0, ptr %10, align 8, !tbaa !10
  store i32 %1, ptr %11, align 4, !tbaa !12
  store ptr %2, ptr %12, align 8, !tbaa !3
  store ptr %3, ptr %13, align 8, !tbaa !8
  store i64 %4, ptr %14, align 8, !tbaa !10
  store ptr %5, ptr %15, align 8, !tbaa !8
  store i64 %6, ptr %16, align 8, !tbaa !10
  store ptr %7, ptr %17, align 8, !tbaa !76
  store ptr %8, ptr %18, align 8, !tbaa !76
  call void @llvm.lifetime.start.p0(i64 8, ptr %19) #12
  store ptr null, ptr %19, align 8, !tbaa !76
  call void @llvm.lifetime.start.p0(i64 8, ptr %20) #12
  store ptr null, ptr %20, align 8, !tbaa !71
  call void @llvm.lifetime.start.p0(i64 8, ptr %21) #12
  %23 = load i32, ptr getelementptr inbounds nuw (%struct.pmix_client_globals_t, ptr @pmix_client_globals, i32 0, i32 19), align 8, !tbaa !75
  %24 = icmp sge i32 %23, 0
  br i1 %24, label %25, label %38

25:                                               ; preds = %9
  %26 = load i32, ptr getelementptr inbounds nuw (%struct.pmix_client_globals_t, ptr @pmix_client_globals, i32 0, i32 19), align 8, !tbaa !75
  %27 = icmp slt i32 %26, 64
  br i1 %27, label %28, label %38

28:                                               ; preds = %25
  %29 = load i32, ptr getelementptr inbounds nuw (%struct.pmix_client_globals_t, ptr @pmix_client_globals, i32 0, i32 19), align 8, !tbaa !75
  %30 = sext i32 %29 to i64
  %31 = getelementptr inbounds [0 x %struct.pmix_output_desc_t], ptr @pmix_output_info, i64 0, i64 %30
  %32 = getelementptr inbounds nuw %struct.pmix_output_desc_t, ptr %31, i32 0, i32 2
  %33 = load i32, ptr %32, align 4, !tbaa !83
  %34 = icmp sge i32 %33, 2
  br i1 %34, label %35, label %38

35:                                               ; preds = %28
  %36 = load i32, ptr getelementptr inbounds nuw (%struct.pmix_client_globals_t, ptr @pmix_client_globals, i32 0, i32 19), align 8, !tbaa !75
  %37 = load i32, ptr getelementptr inbounds nuw (%struct.pmix_proc, ptr getelementptr inbounds nuw (%struct.pmix_globals_t, ptr @pmix_globals, i32 0, i32 1), i32 0, i32 1), align 4, !tbaa !60
  call void (i32, ptr, ...) @pmix_output(i32 noundef %36, ptr noundef @.str.60, ptr noundef getelementptr inbounds nuw (%struct.pmix_globals_t, ptr @pmix_globals, i32 0, i32 1), i32 noundef %37)
  br label %38

38:                                               ; preds = %35, %28, %25, %9
  %39 = load ptr, ptr %13, align 8, !tbaa !8
  %40 = icmp ne ptr null, %39
  br i1 %40, label %41, label %114

41:                                               ; preds = %38
  store ptr null, ptr %19, align 8, !tbaa !76
  store i64 0, ptr %21, align 8, !tbaa !10
  br label %42

42:                                               ; preds = %78, %41
  %43 = load i64, ptr %21, align 8, !tbaa !10
  %44 = load i64, ptr %14, align 8, !tbaa !10
  %45 = icmp ult i64 %43, %44
  br i1 %45, label %46, label %81

46:                                               ; preds = %42
  %47 = load ptr, ptr %13, align 8, !tbaa !8
  %48 = load i64, ptr %21, align 8, !tbaa !10
  %49 = getelementptr inbounds nuw %struct.pmix_info, ptr %47, i64 %48
  %50 = getelementptr inbounds nuw %struct.pmix_info, ptr %49, i32 0, i32 0
  %51 = getelementptr inbounds [512 x i8], ptr %50, i64 0, i64 0
  %52 = call i32 @strncmp(ptr noundef %51, ptr noundef @.str.29, i64 noundef 511) #13
  %53 = icmp eq i32 0, %52
  br i1 %53, label %54, label %61

54:                                               ; preds = %46
  %55 = load ptr, ptr %13, align 8, !tbaa !8
  %56 = load i64, ptr %21, align 8, !tbaa !10
  %57 = getelementptr inbounds nuw %struct.pmix_info, ptr %55, i64 %56
  %58 = getelementptr inbounds nuw %struct.pmix_info, ptr %57, i32 0, i32 2
  %59 = getelementptr inbounds nuw %struct.pmix_value, ptr %58, i32 0, i32 1
  %60 = load ptr, ptr %59, align 8, !tbaa !14
  store ptr %60, ptr %19, align 8, !tbaa !76
  br label %77

61:                                               ; preds = %46
  %62 = load ptr, ptr %13, align 8, !tbaa !8
  %63 = load i64, ptr %21, align 8, !tbaa !10
  %64 = getelementptr inbounds nuw %struct.pmix_info, ptr %62, i64 %63
  %65 = getelementptr inbounds nuw %struct.pmix_info, ptr %64, i32 0, i32 0
  %66 = getelementptr inbounds [512 x i8], ptr %65, i64 0, i64 0
  %67 = call i32 @strncmp(ptr noundef %66, ptr noundef @.str.30, i64 noundef 511) #13
  %68 = icmp eq i32 0, %67
  br i1 %68, label %69, label %76

69:                                               ; preds = %61
  %70 = load ptr, ptr %13, align 8, !tbaa !8
  %71 = load i64, ptr %21, align 8, !tbaa !10
  %72 = getelementptr inbounds nuw %struct.pmix_info, ptr %70, i64 %71
  %73 = getelementptr inbounds nuw %struct.pmix_info, ptr %72, i32 0, i32 2
  %74 = getelementptr inbounds nuw %struct.pmix_value, ptr %73, i32 0, i32 1
  %75 = load ptr, ptr %74, align 8, !tbaa !14
  store ptr %75, ptr %20, align 8, !tbaa !71
  br label %76

76:                                               ; preds = %69, %61
  br label %77

77:                                               ; preds = %76, %54
  br label %78

78:                                               ; preds = %77
  %79 = load i64, ptr %21, align 8, !tbaa !10
  %80 = add i64 %79, 1
  store i64 %80, ptr %21, align 8, !tbaa !10
  br label %42, !llvm.loop !207

81:                                               ; preds = %42
  %82 = load ptr, ptr %19, align 8, !tbaa !76
  %83 = icmp eq ptr null, %82
  br i1 %83, label %84, label %113

84:                                               ; preds = %81
  %85 = load i32, ptr getelementptr inbounds nuw (%struct.pmix_client_globals_t, ptr @pmix_client_globals, i32 0, i32 19), align 8, !tbaa !75
  %86 = icmp sge i32 %85, 0
  br i1 %86, label %87, label %106

87:                                               ; preds = %84
  %88 = load i32, ptr getelementptr inbounds nuw (%struct.pmix_client_globals_t, ptr @pmix_client_globals, i32 0, i32 19), align 8, !tbaa !75
  %89 = icmp slt i32 %88, 64
  br i1 %89, label %90, label %106

90:                                               ; preds = %87
  %91 = load i32, ptr getelementptr inbounds nuw (%struct.pmix_client_globals_t, ptr @pmix_client_globals, i32 0, i32 19), align 8, !tbaa !75
  %92 = sext i32 %91 to i64
  %93 = getelementptr inbounds [0 x %struct.pmix_output_desc_t], ptr @pmix_output_info, i64 0, i64 %92
  %94 = getelementptr inbounds nuw %struct.pmix_output_desc_t, ptr %93, i32 0, i32 2
  %95 = load i32, ptr %94, align 4, !tbaa !83
  %96 = icmp sge i32 %95, 2
  br i1 %96, label %97, label %106

97:                                               ; preds = %90
  %98 = load i32, ptr getelementptr inbounds nuw (%struct.pmix_client_globals_t, ptr @pmix_client_globals, i32 0, i32 19), align 8, !tbaa !75
  %99 = load ptr, ptr %20, align 8, !tbaa !71
  %100 = icmp eq ptr null, %99
  br i1 %100, label %101, label %102

101:                                              ; preds = %97
  br label %104

102:                                              ; preds = %97
  %103 = load ptr, ptr %20, align 8, !tbaa !71
  br label %104

104:                                              ; preds = %102, %101
  %105 = phi ptr [ @.str.62, %101 ], [ %103, %102 ]
  call void (i32, ptr, ...) @pmix_output(i32 noundef %98, ptr noundef @.str.61, ptr noundef %105)
  br label %106

106:                                              ; preds = %104, %90, %87, %84
  %107 = load ptr, ptr %17, align 8, !tbaa !76
  %108 = icmp ne ptr null, %107
  br i1 %108, label %109, label %112

109:                                              ; preds = %106
  %110 = load ptr, ptr %17, align 8, !tbaa !76
  %111 = load ptr, ptr %18, align 8, !tbaa !76
  call void %110(i32 noundef 0, ptr noundef null, i64 noundef 0, ptr noundef null, ptr noundef null, ptr noundef %111)
  br label %112

112:                                              ; preds = %109, %106
  store i32 1, ptr %22, align 4
  br label %137

113:                                              ; preds = %81
  br label %114

114:                                              ; preds = %113, %38
  %115 = load ptr, ptr %19, align 8, !tbaa !76
  %116 = icmp ne ptr null, %115
  br i1 %116, label %117, label %130

117:                                              ; preds = %114
  br label %118

118:                                              ; preds = %117
  %119 = load ptr, ptr %19, align 8, !tbaa !76
  %120 = getelementptr inbounds nuw %struct.pmix_lock_t, ptr %119, i32 0, i32 1
  call void @pmix_mutex_lock(ptr noundef %120)
  %121 = load ptr, ptr %19, align 8, !tbaa !76
  %122 = getelementptr inbounds nuw %struct.pmix_lock_t, ptr %121, i32 0, i32 3
  store volatile i8 0, ptr %122, align 8, !tbaa !17
  call void @pmix_atomic_wmb()
  %123 = load ptr, ptr %19, align 8, !tbaa !76
  %124 = getelementptr inbounds nuw %struct.pmix_lock_t, ptr %123, i32 0, i32 2
  %125 = call i32 @pthread_cond_broadcast(ptr noundef %124) #12
  %126 = load ptr, ptr %19, align 8, !tbaa !76
  %127 = getelementptr inbounds nuw %struct.pmix_lock_t, ptr %126, i32 0, i32 1
  call void @pmix_mutex_unlock(ptr noundef %127)
  br label %128

128:                                              ; preds = %118
  br label %129

129:                                              ; preds = %128
  br label %130

130:                                              ; preds = %129, %114
  %131 = load ptr, ptr %17, align 8, !tbaa !76
  %132 = icmp ne ptr null, %131
  br i1 %132, label %133, label %136

133:                                              ; preds = %130
  %134 = load ptr, ptr %17, align 8, !tbaa !76
  %135 = load ptr, ptr %18, align 8, !tbaa !76
  call void %134(i32 noundef -334, ptr noundef null, i64 noundef 0, ptr noundef null, ptr noundef null, ptr noundef %135)
  br label %136

136:                                              ; preds = %133, %130
  store i32 0, ptr %22, align 4
  br label %137

137:                                              ; preds = %136, %112
  call void @llvm.lifetime.end.p0(i64 8, ptr %21) #12
  call void @llvm.lifetime.end.p0(i64 8, ptr %20) #12
  call void @llvm.lifetime.end.p0(i64 8, ptr %19) #12
  %138 = load i32, ptr %22, align 4
  switch i32 %138, label %140 [
    i32 0, label %139
    i32 1, label %139
  ]

139:                                              ; preds = %137, %137
  ret void

140:                                              ; preds = %137
  unreachable
}